target datalayout = "e-m:e-p270:32:32-p271:32:32-p272:64:64-i64:64-i128:128-f80:128-n8:16:32:64-S128"
target triple = "x86_64-pc-linux-gnu"

%"class.google::protobuf::StringPiece" = type { ptr, i64 }
%"class.google::protobuf::internal::ParseContext" = type { %"class.google::protobuf::internal::EpsCopyInputStream", i32, i32, %"struct.google::protobuf::internal::ParseContext::Data" }
%"class.google::protobuf::internal::EpsCopyInputStream" = type { ptr, ptr, ptr, i32, i32, ptr, [32 x i8], i64, i32, i32 }
%"struct.google::protobuf::internal::ParseContext::Data" = type { ptr, ptr }

@_ZN6google8protobuf2io16CodedInputStream24default_recursion_limit_E = external global i32, align 4

; Function Attrs: mustprogress nounwind uwtable
define linkonce_odr noundef ptr @_ZNK6google8protobuf11StringPiece4dataEv(ptr noundef nonnull align 8 dereferenceable(16) %0) #5 comdat align 2 {
  %2 = alloca ptr, align 8
  store ptr %0, ptr %2, align 8
  %3 = load ptr, ptr %2, align 8
  %4 = getelementptr inbounds %"class.google::protobuf::StringPiece", ptr %3, i32 0, i32 0
  %5 = load ptr, ptr %4, align 8
  ret ptr %5
}

; Function Attrs: mustprogress nounwind uwtable
define linkonce_odr noundef i64 @_ZNK6google8protobuf11StringPiece4sizeEv(ptr noundef nonnull align 8 dereferenceable(16) %0) #5 comdat align 2 {
  %2 = alloca ptr, align 8
  store ptr %0, ptr %2, align 8
  %3 = load ptr, ptr %2, align 8
  %4 = getelementptr inbounds %"class.google::protobuf::StringPiece", ptr %3, i32 0, i32 1
  %5 = load i64, ptr %4, align 8
  ret i64 %5
}

; Function Attrs: mustprogress uwtable
define linkonce_odr noundef zeroext i1 @_ZNK6google8protobuf11MessageLite23IsInitializedWithErrorsEv(ptr noundef nonnull align 8 dereferenceable(16) %0) #4 comdat align 2 {
  %2 = alloca i1, align 1
  %3 = alloca ptr, align 8
  store ptr %0, ptr %3, align 8
  %4 = load ptr, ptr %3, align 8
  %5 = load ptr, ptr %4, align 8
  %6 = getelementptr inbounds ptr, ptr %5, i64 6
  %7 = load ptr, ptr %6, align 8
  %8 = call noundef zeroext i1 %7(ptr noundef nonnull align 8 dereferenceable(16) %4)
  br i1 %8, label %9, label %10

9:                                                ; preds = %1
  store i1 true, ptr %2, align 1
  br label %11

10:                                               ; preds = %1
  call void @_ZNK6google8protobuf11MessageLite29LogInitializationErrorMessageEv(ptr noundef nonnull align 8 dereferenceable(16) %4)
  store i1 false, ptr %2, align 1
  br label %11

11:                                               ; preds = %10, %9
  %12 = load i1, ptr %2, align 1
  ret i1 %12
}

; Function Attrs: mustprogress uwtable
define linkonce_odr noundef ptr @_ZN6google8protobuf8internal18EpsCopyInputStream8InitFromENS0_11StringPieceE(ptr noundef nonnull align 8 dereferenceable(88) %0, ptr %1, i64 %2) #4 comdat align 2 {
  %4 = alloca ptr, align 8
  %5 = alloca %"class.google::protobuf::StringPiece", align 8
  %6 = alloca ptr, align 8
  %7 = getelementptr inbounds { ptr, i64 }, ptr %5, i32 0, i32 0
  store ptr %1, ptr %7, align 8
  %8 = getelementptr inbounds { ptr, i64 }, ptr %5, i32 0, i32 1
  store i64 %2, ptr %8, align 8
  store ptr %0, ptr %6, align 8
  %9 = load ptr, ptr %6, align 8
  %10 = getelementptr inbounds %"class.google::protobuf::internal::EpsCopyInputStream", ptr %9, i32 0, i32 9
  store i32 0, ptr %10, align 4
  %11 = call noundef i64 @_ZNK6google8protobuf11StringPiece4sizeEv(ptr noundef nonnull align 8 dereferenceable(16) %5)
  %12 = icmp sgt i64 %11, 16
  br i1 %12, label %13, label %31

13:                                               ; preds = %3
  %14 = getelementptr inbounds %"class.google::protobuf::internal::EpsCopyInputStream", ptr %9, i32 0, i32 4
  store i32 16, ptr %14, align 4
  %15 = call noundef ptr @_ZNK6google8protobuf11StringPiece4dataEv(ptr noundef nonnull align 8 dereferenceable(16) %5)
  %16 = call noundef i64 @_ZNK6google8protobuf11StringPiece4sizeEv(ptr noundef nonnull align 8 dereferenceable(16) %5)
  %17 = getelementptr inbounds i8, ptr %15, i64 %16
  %18 = getelementptr inbounds i8, ptr %17, i64 -16
  %19 = getelementptr inbounds %"class.google::protobuf::internal::EpsCopyInputStream", ptr %9, i32 0, i32 1
  store ptr %18, ptr %19, align 8
  %20 = getelementptr inbounds %"class.google::protobuf::internal::EpsCopyInputStream", ptr %9, i32 0, i32 0
  store ptr %18, ptr %20, align 8
  %21 = getelementptr inbounds %"class.google::protobuf::internal::EpsCopyInputStream", ptr %9, i32 0, i32 6
  %22 = getelementptr inbounds [32 x i8], ptr %21, i64 0, i64 0
  %23 = getelementptr inbounds %"class.google::protobuf::internal::EpsCopyInputStream", ptr %9, i32 0, i32 2
  store ptr %22, ptr %23, align 8
  %24 = getelementptr inbounds %"class.google::protobuf::internal::EpsCopyInputStream", ptr %9, i32 0, i32 7
  %25 = load i64, ptr %24, align 8
  %26 = icmp eq i64 %25, 1
  br i1 %26, label %27, label %29

27:                                               ; preds = %13
  %28 = getelementptr inbounds %"class.google::protobuf::internal::EpsCopyInputStream", ptr %9, i32 0, i32 7
  store i64 2, ptr %28, align 8
  br label %29

29:                                               ; preds = %27, %13
  %30 = call noundef ptr @_ZNK6google8protobuf11StringPiece4dataEv(ptr noundef nonnull align 8 dereferenceable(16) %5)
  store ptr %30, ptr %4, align 8
  br label %58

31:                                               ; preds = %3
  %32 = getelementptr inbounds %"class.google::protobuf::internal::EpsCopyInputStream", ptr %9, i32 0, i32 6
  %33 = getelementptr inbounds [32 x i8], ptr %32, i64 0, i64 0
  %34 = call noundef ptr @_ZNK6google8protobuf11StringPiece4dataEv(ptr noundef nonnull align 8 dereferenceable(16) %5)
  %35 = call noundef i64 @_ZNK6google8protobuf11StringPiece4sizeEv(ptr noundef nonnull align 8 dereferenceable(16) %5)
  call void @llvm.memcpy.p0.p0.i64(ptr align 8 %33, ptr align 1 %34, i64 %35, i1 false)
  %36 = getelementptr inbounds %"class.google::protobuf::internal::EpsCopyInputStream", ptr %9, i32 0, i32 4
  store i32 0, ptr %36, align 4
  %37 = getelementptr inbounds %"class.google::protobuf::internal::EpsCopyInputStream", ptr %9, i32 0, i32 6
  %38 = getelementptr inbounds [32 x i8], ptr %37, i64 0, i64 0
  %39 = call noundef i64 @_ZNK6google8protobuf11StringPiece4sizeEv(ptr noundef nonnull align 8 dereferenceable(16) %5)
  %40 = getelementptr inbounds i8, ptr %38, i64 %39
  %41 = getelementptr inbounds %"class.google::protobuf::internal::EpsCopyInputStream", ptr %9, i32 0, i32 1
  store ptr %40, ptr %41, align 8
  %42 = getelementptr inbounds %"class.google::protobuf::internal::EpsCopyInputStream", ptr %9, i32 0, i32 0
  store ptr %40, ptr %42, align 8
  %43 = getelementptr inbounds %"class.google::protobuf::internal::EpsCopyInputStream", ptr %9, i32 0, i32 2
  store ptr null, ptr %43, align 8
  %44 = getelementptr inbounds %"class.google::protobuf::internal::EpsCopyInputStream", ptr %9, i32 0, i32 7
  %45 = load i64, ptr %44, align 8
  %46 = icmp eq i64 %45, 1
  br i1 %46, label %47, label %55

47:                                               ; preds = %31
  %48 = call noundef ptr @_ZNK6google8protobuf11StringPiece4dataEv(ptr noundef nonnull align 8 dereferenceable(16) %5)
  %49 = ptrtoint ptr %48 to i64
  %50 = getelementptr inbounds %"class.google::protobuf::internal::EpsCopyInputStream", ptr %9, i32 0, i32 6
  %51 = getelementptr inbounds [32 x i8], ptr %50, i64 0, i64 0
  %52 = ptrtoint ptr %51 to i64
  %53 = sub i64 %49, %52
  %54 = getelementptr inbounds %"class.google::protobuf::internal::EpsCopyInputStream", ptr %9, i32 0, i32 7
  store i64 %53, ptr %54, align 8
  br label %55

55:                                               ; preds = %47, %31
  %56 = getelementptr inbounds %"class.google::protobuf::internal::EpsCopyInputStream", ptr %9, i32 0, i32 6
  %57 = getelementptr inbounds [32 x i8], ptr %56, i64 0, i64 0
  store ptr %57, ptr %4, align 8
  br label %58

58:                                               ; preds = %55, %29
  %59 = load ptr, ptr %4, align 8
  ret ptr %59
}

; Function Attrs: mustprogress nounwind uwtable
define linkonce_odr void @_ZN6google8protobuf8internal12ParseContext4DataC2Ev(ptr noundef nonnull align 8 dereferenceable(16) %0) unnamed_addr #5 comdat align 2 {
  %2 = alloca ptr, align 8
  store ptr %0, ptr %2, align 8
  %3 = load ptr, ptr %2, align 8
  %4 = getelementptr inbounds %"struct.google::protobuf::internal::ParseContext::Data", ptr %3, i32 0, i32 0
  store ptr null, ptr %4, align 8
  %5 = getelementptr inbounds %"struct.google::protobuf::internal::ParseContext::Data", ptr %3, i32 0, i32 1
  store ptr null, ptr %5, align 8
  ret void
}

; Function Attrs: mustprogress nounwind uwtable
define linkonce_odr void @_ZN6google8protobuf8internal18EpsCopyInputStreamC2Eb(ptr noundef nonnull align 8 dereferenceable(88) %0, i1 noundef zeroext %1) unnamed_addr #5 comdat align 2 {
  %3 = alloca ptr, align 8
  %4 = alloca i8, align 1
  store ptr %0, ptr %3, align 8
  %5 = zext i1 %1 to i8
  store i8 %5, ptr %4, align 1
  %6 = load ptr, ptr %3, align 8
  %7 = getelementptr inbounds %"class.google::protobuf::internal::EpsCopyInputStream", ptr %6, i32 0, i32 5
  store ptr null, ptr %7, align 8
  %8 = getelementptr inbounds %"class.google::protobuf::internal::EpsCopyInputStream", ptr %6, i32 0, i32 6
  %9 = getelementptr inbounds [32 x i8], ptr %8, i64 0, i64 0
  %10 = getelementptr inbounds i8, ptr %9, i64 32
  br label %11

11:                                               ; preds = %11, %2
  %12 = phi ptr [ %9, %2 ], [ %13, %11 ]
  store i8 0, ptr %12, align 1
  %13 = getelementptr inbounds i8, ptr %12, i64 1
  %14 = icmp eq ptr %13, %10
  br i1 %14, label %15, label %11

15:                                               ; preds = %11
  %16 = getelementptr inbounds %"class.google::protobuf::internal::EpsCopyInputStream", ptr %6, i32 0, i32 7
  %17 = load i8, ptr %4, align 1
  %18 = trunc i8 %17 to i1
  %19 = select i1 %18, i32 1, i32 0
  %20 = zext i32 %19 to i64
  store i64 %20, ptr %16, align 8
  %21 = getelementptr inbounds %"class.google::protobuf::internal::EpsCopyInputStream", ptr %6, i32 0, i32 8
  store i32 0, ptr %21, align 8
  %22 = getelementptr inbounds %"class.google::protobuf::internal::EpsCopyInputStream", ptr %6, i32 0, i32 9
  store i32 2147483647, ptr %22, align 4
  ret void
}

; Function Attrs: mustprogress uwtable
define internal noundef zeroext i1 @_ZN6google8protobuf12_GLOBAL__N_118CheckFieldPresenceERKNS0_8internal12ParseContextERKNS0_11MessageLiteENS6_10ParseFlagsE(ptr noundef nonnull align 8 dereferenceable(112) %0, ptr noundef nonnull align 8 dereferenceable(16) %1, i32 noundef %2) #4 {
  %4 = alloca i1, align 1
  %5 = alloca ptr, align 8
  %6 = alloca ptr, align 8
  %7 = alloca i32, align 4
  store ptr %0, ptr %5, align 8
  store ptr %1, ptr %6, align 8
  store i32 %2, ptr %7, align 4
  %8 = load i32, ptr %7, align 4
  %9 = and i32 %8, 2
  %10 = icmp ne i32 %9, 0
  br i1 %10, label %11, label %12

11:                                               ; preds = %3
  store i1 true, ptr %4, align 1
  br label %15

12:                                               ; preds = %3
  %13 = load ptr, ptr %6, align 8
  %14 = call noundef zeroext i1 @_ZNK6google8protobuf11MessageLite23IsInitializedWithErrorsEv(ptr noundef nonnull align 8 dereferenceable(16) %13)
  store i1 %14, ptr %4, align 1
  br label %15

15:                                               ; preds = %12, %11
  %16 = load i1, ptr %4, align 1
  ret i1 %16
}

; Function Attrs: mustprogress nounwind uwtable
define linkonce_odr noundef zeroext i1 @_ZNK6google8protobuf8internal18EpsCopyInputStream12EndedAtLimitEv(ptr noundef nonnull align 8 dereferenceable(88) %0) #5 comdat align 2 {
  %2 = alloca ptr, align 8
  store ptr %0, ptr %2, align 8
  %3 = load ptr, ptr %2, align 8
  %4 = getelementptr inbounds %"class.google::protobuf::internal::EpsCopyInputStream", ptr %3, i32 0, i32 8
  %5 = load i32, ptr %4, align 8
  %6 = icmp eq i32 %5, 0
  ret i1 %6
}

; Function Attrs: mustprogress uwtable
define linkonce_odr void @_ZN6google8protobuf8internal12ParseContextC2IJRNS0_11StringPieceEEEEibPPKcDpOT_(ptr noundef nonnull align 8 dereferenceable(112) %0, i32 noundef %1, i1 noundef zeroext %2, ptr noundef %3, ptr noundef nonnull align 8 dereferenceable(16) %4) unnamed_addr #4 comdat align 2 {
  %6 = alloca ptr, align 8
  %7 = alloca i32, align 4
  %8 = alloca i8, align 1
  %9 = alloca ptr, align 8
  %10 = alloca ptr, align 8
  %11 = alloca %"class.google::protobuf::StringPiece", align 8
  store ptr %0, ptr %6, align 8
  store i32 %1, ptr %7, align 4
  %12 = zext i1 %2 to i8
  store i8 %12, ptr %8, align 1
  store ptr %3, ptr %9, align 8
  store ptr %4, ptr %10, align 8
  %13 = load ptr, ptr %6, align 8
  %14 = load i8, ptr %8, align 1
  %15 = trunc i8 %14 to i1
  call void @_ZN6google8protobuf8internal18EpsCopyInputStreamC2Eb(ptr noundef nonnull align 8 dereferenceable(88) %13, i1 noundef zeroext %15)
  %16 = getelementptr inbounds %"class.google::protobuf::internal::ParseContext", ptr %13, i32 0, i32 1
  %17 = load i32, ptr %7, align 4
  store i32 %17, ptr %16, align 8
  %18 = getelementptr inbounds %"class.google::protobuf::internal::ParseContext", ptr %13, i32 0, i32 2
  store i32 -2147483648, ptr %18, align 4
  %19 = getelementptr inbounds %"class.google::protobuf::internal::ParseContext", ptr %13, i32 0, i32 3
  call void @_ZN6google8protobuf8internal12ParseContext4DataC2Ev(ptr noundef nonnull align 8 dereferenceable(16) %19) #3
  %20 = load ptr, ptr %10, align 8
  call void @llvm.memcpy.p0.p0.i64(ptr align 8 %11, ptr align 8 %20, i64 16, i1 false)
  %21 = getelementptr inbounds { ptr, i64 }, ptr %11, i32 0, i32 0
  %22 = load ptr, ptr %21, align 8
  %23 = getelementptr inbounds { ptr, i64 }, ptr %11, i32 0, i32 1
  %24 = load i64, ptr %23, align 8
  %25 = call noundef ptr @_ZN6google8protobuf8internal18EpsCopyInputStream8InitFromENS0_11StringPieceE(ptr noundef nonnull align 8 dereferenceable(88) %13, ptr %22, i64 %24)
  %26 = load ptr, ptr %9, align 8
  store ptr %25, ptr %26, align 8
  ret void
}

; Function Attrs: mustprogress nounwind uwtable
define linkonce_odr noundef i32 @_ZN6google8protobuf2io16CodedInputStream24GetDefaultRecursionLimitEv() #5 comdat align 2 {
  %1 = load i32, ptr @_ZN6google8protobuf2io16CodedInputStream24default_recursion_limit_E, align 4
  ret i32 %1
}

; Function Attrs: mustprogress uwtable
define weak_odr noundef zeroext i1 @_ZN6google8protobuf8internal13MergeFromImplILb0EEEbNS0_11StringPieceEPNS0_11MessageLiteENS4_10ParseFlagsE(ptr %0, i64 %1, ptr noundef %2, i32 noundef %3) #4 comdat {
  %5 = alloca i1, align 1
  %6 = alloca %"class.google::protobuf::StringPiece", align 8
  %7 = alloca ptr, align 8
  %8 = alloca i32, align 4
  %9 = alloca ptr, align 8
  %10 = alloca %"class.google::protobuf::internal::ParseContext", align 8
  %11 = getelementptr inbounds { ptr, i64 }, ptr %6, i32 0, i32 0
  store ptr %0, ptr %11, align 8
  %12 = getelementptr inbounds { ptr, i64 }, ptr %6, i32 0, i32 1
  store i64 %1, ptr %12, align 8
  store ptr %2, ptr %7, align 8
  store i32 %3, ptr %8, align 4
  %13 = call noundef i32 @_ZN6google8protobuf2io16CodedInputStream24GetDefaultRecursionLimitEv()
  call void @_ZN6google8protobuf8internal12ParseContextC2IJRNS0_11StringPieceEEEEibPPKcDpOT_(ptr noundef nonnull align 8 dereferenceable(112) %10, i32 noundef %13, i1 noundef zeroext false, ptr noundef %9, ptr noundef nonnull align 8 dereferenceable(16) %6)
  %14 = load ptr, ptr %7, align 8
  %15 = load ptr, ptr %9, align 8
  %16 = load ptr, ptr %14, align 8
  %17 = getelementptr inbounds ptr, ptr %16, i64 11
  %18 = load ptr, ptr %17, align 8
  %19 = call noundef ptr %18(ptr noundef nonnull align 8 dereferenceable(16) %14, ptr noundef %15, ptr noundef %10)
  store ptr %19, ptr %9, align 8
  %20 = load ptr, ptr %9, align 8
  %21 = icmp ne ptr %20, null
  br i1 %21, label %22, label %24

22:                                               ; preds = %4
  %23 = call noundef zeroext i1 @_ZNK6google8protobuf8internal18EpsCopyInputStream12EndedAtLimitEv(ptr noundef nonnull align 8 dereferenceable(88) %10)
  br label %24

24:                                               ; preds = %22, %4
  %25 = phi i1 [ false, %4 ], [ %23, %22 ]
  %26 = xor i1 %25, true
  %27 = xor i1 %26, true
  br i1 %27, label %28, label %32

28:                                               ; preds = %24
  %29 = load ptr, ptr %7, align 8
  %30 = load i32, ptr %8, align 4
  %31 = call noundef zeroext i1 @_ZN6google8protobuf12_GLOBAL__N_118CheckFieldPresenceERKNS0_8internal12ParseContextERKNS0_11MessageLiteENS6_10ParseFlagsE(ptr noundef nonnull align 8 dereferenceable(112) %10, ptr noundef nonnull align 8 dereferenceable(16) %29, i32 noundef %30)
  store i1 %31, ptr %5, align 1
  br label %33

32:                                               ; preds = %24
  store i1 false, ptr %5, align 1
  br label %33

33:                                               ; preds = %32, %28
  %34 = load i1, ptr %5, align 1
  ret i1 %34
}

; Function Attrs: mustprogress nounwind uwtable
define linkonce_odr void @_ZN6google8protobuf11StringPieceC2EPKcl(ptr noundef nonnull align 8 dereferenceable(16) %0, ptr noundef %1, i64 noundef %2) unnamed_addr #5 comdat align 2 {
  %4 = alloca ptr, align 8
  %5 = alloca ptr, align 8
  %6 = alloca i64, align 8
  store ptr %0, ptr %4, align 8
  store ptr %1, ptr %5, align 8
  store i64 %2, ptr %6, align 8
  %7 = load ptr, ptr %4, align 8
  %8 = getelementptr inbounds %"class.google::protobuf::StringPiece", ptr %7, i32 0, i32 0
  %9 = load ptr, ptr %5, align 8
  store ptr %9, ptr %8, align 8
  %10 = getelementptr inbounds %"class.google::protobuf::StringPiece", ptr %7, i32 0, i32 1
  %11 = load i64, ptr %6, align 8
  store i64 %11, ptr %10, align 8
  ret void
}

; Function Attrs: mustprogress uwtable
define linkonce_odr noundef zeroext i1 @_ZN6google8protobuf11MessageLite9ParseFromILNS1_10ParseFlagsE1ENS0_11StringPieceEEEbRKT0_(ptr noundef nonnull align 8 dereferenceable(16) %0, ptr noundef nonnull align 8 dereferenceable(16) %1) #4 comdat align 2 {
  %3 = alloca ptr, align 8
  %4 = alloca ptr, align 8
  %5 = alloca i8, align 1
  %6 = alloca %"class.google::protobuf::StringPiece", align 8
  store ptr %0, ptr %3, align 8
  store ptr %1, ptr %4, align 8
  %7 = load ptr, ptr %3, align 8
  %8 = load ptr, ptr %7, align 8
  %9 = getelementptr inbounds ptr, ptr %8, i64 5
  %10 = load ptr, ptr %9, align 8
  call void %10(ptr noundef nonnull align 8 dereferenceable(16) %7)
  store i8 0, ptr %5, align 1
  %11 = load ptr, ptr %4, align 8
  call void @llvm.memcpy.p0.p0.i64(ptr align 8 %6, ptr align 8 %11, i64 16, i1 false)
  %12 = getelementptr inbounds { ptr, i64 }, ptr %6, i32 0, i32 0
  %13 = load ptr, ptr %12, align 8
  %14 = getelementptr inbounds { ptr, i64 }, ptr %6, i32 0, i32 1
  %15 = load i64, ptr %14, align 8
  %16 = call noundef zeroext i1 @_ZN6google8protobuf8internal13MergeFromImplILb0EEEbNS0_11StringPieceEPNS0_11MessageLiteENS4_10ParseFlagsE(ptr %13, i64 %15, ptr noundef %7, i32 noundef 1)
  ret i1 %16
}

; Function Attrs: mustprogress uwtable
define internal { ptr, i64 } @_ZN6google8protobuf12_GLOBAL__N_114as_string_viewEPKvi(ptr noundef %0, i32 noundef %1) #4 {
  %3 = alloca %"class.google::protobuf::StringPiece", align 8
  %4 = alloca ptr, align 8
  %5 = alloca i32, align 4
  store ptr %0, ptr %4, align 8
  store i32 %1, ptr %5, align 4
  %6 = load ptr, ptr %4, align 8
  %7 = load i32, ptr %5, align 4
  %8 = sext i32 %7 to i64
  call void @_ZN6google8protobuf11StringPieceC2EPKcl(ptr noundef nonnull align 8 dereferenceable(16) %3, ptr noundef %6, i64 noundef %8)
  %9 = load { ptr, i64 }, ptr %3, align 8
  ret { ptr, i64 } %9
}

; Function Attrs: mustprogress uwtable
define noundef zeroext i1 @_ZN6google8protobuf11MessageLite14ParseFromArrayEPKvi(ptr noundef nonnull align 8 dereferenceable(16) %0, ptr noundef %1, i32 noundef %2) #4 align 2 {
  %4 = alloca ptr, align 8
  %5 = alloca ptr, align 8
  %6 = alloca i32, align 4
  %7 = alloca %"class.google::protobuf::StringPiece", align 8
  store ptr %0, ptr %4, align 8
  store ptr %1, ptr %5, align 8
  store i32 %2, ptr %6, align 4
  %8 = load ptr, ptr %4, align 8
  %9 = load ptr, ptr %5, align 8
  %10 = load i32, ptr %6, align 4
  %11 = call { ptr, i64 } @_ZN6google8protobuf12_GLOBAL__N_114as_string_viewEPKvi(ptr noundef %9, i32 noundef %10)
  %12 = getelementptr inbounds { ptr, i64 }, ptr %7, i32 0, i32 0
  %13 = extractvalue { ptr, i64 } %11, 0
  store ptr %13, ptr %12, align 8
  %14 = getelementptr inbounds { ptr, i64 }, ptr %7, i32 0, i32 1
  %15 = extractvalue { ptr, i64 } %11, 1
  store i64 %15, ptr %14, align 8
  %16 = call noundef zeroext i1 @_ZN6google8protobuf11MessageLite9ParseFromILNS1_10ParseFlagsE1ENS0_11StringPieceEEEbRKT0_(ptr noundef nonnull align 8 dereferenceable(16) %8, ptr noundef nonnull align 8 dereferenceable(16) %7)
  ret i1 %16
}