; Function Attrs: mustprogress uwtable
define noundef zeroext i1 @_ZN6google8protobuf11MessageLite14ParseFromArrayEPKvi(ptr noundef nonnull align 8 dereferenceable(16) %0, ptr noundef %1, i32 noundef %2) local_unnamed_addr #3 align 2 {
  %4 = alloca %"class.google::protobuf::internal::ParseContext", align 8
  %5 = sext i32 %2 to i64
  %6 = load ptr, ptr %0, align 8
  %7 = getelementptr inbounds i8, ptr %6, i64 40
  %8 = load ptr, ptr %7, align 8
  tail call void %8(ptr noundef nonnull align 8 dereferenceable(16) %0)
  call void @llvm.lifetime.start.p0(i64 112, ptr nonnull %4)
  %9 = load i32, ptr @_ZN6google8protobuf2io16CodedInputStream24default_recursion_limit_E, align 4
  %10 = getelementptr inbounds i8, ptr %4, i64 32
  %11 = getelementptr inbounds i8, ptr %4, i64 72
  %12 = getelementptr inbounds i8, ptr %4, i64 80
  %13 = getelementptr inbounds i8, ptr %4, i64 84
  call void @llvm.memset.p0.i64(ptr noundef nonnull align 8 dereferenceable(52) %10, i8 0, i64 52, i1 false)
  %14 = getelementptr inbounds i8, ptr %4, i64 88
  store i32 %9, ptr %14, align 8
  %15 = getelementptr inbounds i8, ptr %4, i64 92
  store i32 -2147483648, ptr %15, align 4
  %16 = getelementptr inbounds i8, ptr %4, i64 96
  call void @llvm.memset.p0.i64(ptr noundef nonnull align 8 dereferenceable(16) %16, i8 0, i64 16, i1 false)
  store i32 0, ptr %13, align 4
  %17 = icmp sgt i32 %2, 16
  %18 = getelementptr inbounds i8, ptr %4, i64 16
  br i1 %17, label %19, label %25

19:                                               ; preds = %3
  %20 = getelementptr inbounds i8, ptr %4, i64 28
  store i32 16, ptr %20, align 4
  %21 = getelementptr inbounds i8, ptr %1, i64 %5
  %22 = getelementptr inbounds i8, ptr %21, i64 -16
  %23 = getelementptr inbounds i8, ptr %4, i64 8
  store ptr %22, ptr %23, align 8
  store ptr %22, ptr %4, align 8
  %24 = getelementptr inbounds i8, ptr %4, i64 40
  store ptr %24, ptr %18, align 8
  br label %_ZN6google8protobuf8internal12ParseContextC2IJRNS0_11StringPieceEEEEibPPKcDpOT_.exit.i.i

25:                                               ; preds = %3
  %26 = getelementptr inbounds i8, ptr %4, i64 40
  call void @llvm.memcpy.p0.p0.i64(ptr nonnull align 8 %26, ptr align 1 %1, i64 %5, i1 false)
  %27 = getelementptr inbounds i8, ptr %4, i64 28
  store i32 0, ptr %27, align 4
  %28 = getelementptr inbounds i8, ptr %26, i64 %5
  %29 = getelementptr inbounds i8, ptr %4, i64 8
  store ptr %28, ptr %29, align 8
  store ptr %28, ptr %4, align 8
  store ptr null, ptr %18, align 8
  %30 = load i64, ptr %11, align 8
  %31 = icmp eq i64 %30, 1
  br i1 %31, label %32, label %_ZN6google8protobuf8internal12ParseContextC2IJRNS0_11StringPieceEEEEibPPKcDpOT_.exit.i.i

32:                                               ; preds = %25
  %33 = ptrtoint ptr %1 to i64
  %34 = ptrtoint ptr %26 to i64
  %35 = sub i64 %33, %34
  store i64 %35, ptr %11, align 8
  br label %_ZN6google8protobuf8internal12ParseContextC2IJRNS0_11StringPieceEEEEibPPKcDpOT_.exit.i.i

_ZN6google8protobuf8internal12ParseContextC2IJRNS0_11StringPieceEEEEibPPKcDpOT_.exit.i.i: ; preds = %32, %25, %19
  %.0.i.i.i.i = phi ptr [ %26, %25 ], [ %1, %19 ], [ %26, %32 ]
  %36 = load ptr, ptr %0, align 8
  %37 = getelementptr inbounds i8, ptr %36, i64 88
  %38 = load ptr, ptr %37, align 8
  %39 = call noundef ptr %38(ptr noundef nonnull align 8 dereferenceable(16) %0, ptr noundef %.0.i.i.i.i, ptr noundef nonnull %4)
  %.not.i.i = icmp ne ptr %39, null
  %40 = load i32, ptr %12, align 8
  %41 = icmp eq i32 %40, 0
  %or.cond.i.i = select i1 %.not.i.i, i1 %41, i1 false
  br i1 %or.cond.i.i, label %42, label %_ZN6google8protobuf11MessageLite9ParseFromILNS1_10ParseFlagsE1ENS0_11StringPieceEEEbRKT0_.exit

42:                                               ; preds = %_ZN6google8protobuf8internal12ParseContextC2IJRNS0_11StringPieceEEEEibPPKcDpOT_.exit.i.i
  %43 = load ptr, ptr %0, align 8
  %44 = getelementptr inbounds i8, ptr %43, i64 48
  %45 = load ptr, ptr %44, align 8
  %46 = call noundef zeroext i1 %45(ptr noundef nonnull align 8 dereferenceable(16) %0)
  br i1 %46, label %_ZN6google8protobuf11MessageLite9ParseFromILNS1_10ParseFlagsE1ENS0_11StringPieceEEEbRKT0_.exit, label %47

47:                                               ; preds = %42
  call void @_ZNK6google8protobuf11MessageLite29LogInitializationErrorMessageEv(ptr noundef nonnull align 8 dereferenceable(16) %0)
  br label %_ZN6google8protobuf11MessageLite9ParseFromILNS1_10ParseFlagsE1ENS0_11StringPieceEEEbRKT0_.exit

_ZN6google8protobuf11MessageLite9ParseFromILNS1_10ParseFlagsE1ENS0_11StringPieceEEEbRKT0_.exit: ; preds = %_ZN6google8protobuf8internal12ParseContextC2IJRNS0_11StringPieceEEEEibPPKcDpOT_.exit.i.i, %42, %47
  %.0.i.i = phi i1 [ false, %_ZN6google8protobuf8internal12ParseContextC2IJRNS0_11StringPieceEEEEibPPKcDpOT_.exit.i.i ], [ true, %42 ], [ false, %47 ]
  call void @llvm.lifetime.end.p0(i64 112, ptr nonnull %4)
  ret i1 %.0.i.i
}